target datalayout = "e-m:e-p270:32:32-p271:32:32-p272:64:64-i64:64-i128:128-f80:128-n8:16:32:64-S128"
target triple = "x86_64-pc-linux-gnu"

%struct.XLogRecoveryCtlData = type { i8, i8, %struct.Latch, i64, i64, i32, i64, i32, i64, i64, i32, %struct.ConditionVariable, i8 }
%struct.Latch = type { i32, i32, i8, i32 }
%struct.ConditionVariable = type { i8, %struct.proclist_head }
%struct.proclist_head = type { i32, i32 }

@XLogRecoveryCtl = internal global ptr null, align 8
@.str.6 = private unnamed_addr constant [15 x i8] c"xlogrecovery.c\00", align 1
@__func__.GetCurrentReplayRecPtr = private unnamed_addr constant [23 x i8] c"GetCurrentReplayRecPtr\00", align 1

; Function Attrs: inlinehint nounwind uwtable
define internal i32 @tas(ptr noundef %0) #7 {
  %2 = alloca ptr, align 8
  %3 = alloca i8, align 1
  store ptr %0, ptr %2, align 8
  call void @llvm.lifetime.start.p0(i64 1, ptr %3) #14
  store i8 1, ptr %3, align 1
  %4 = load i8, ptr %3, align 1
  %5 = load ptr, ptr %2, align 8
  %6 = call i8 asm sideeffect "\09lock\09\09\09\0A\09xchgb\09$0,$1\09\0A", "=q,=*m,0,*m,~{memory},~{cc},~{dirflag},~{fpsr},~{flags}"(ptr elementtype(i8) %5, i8 %4, ptr elementtype(i8) %5) #14, !srcloc !13
  store i8 %6, ptr %3, align 1
  %7 = load i8, ptr %3, align 1
  %8 = zext i8 %7 to i32
  call void @llvm.lifetime.end.p0(i64 1, ptr %3) #14
  ret i32 %8
}

; Function Attrs: nounwind uwtable
define dso_local i64 @GetCurrentReplayRecPtr(ptr noundef %0) #0 {
  %2 = alloca ptr, align 8
  %3 = alloca i64, align 8
  %4 = alloca i32, align 4
  store ptr %0, ptr %2, align 8
  call void @llvm.lifetime.start.p0(i64 8, ptr %3) #14
  call void @llvm.lifetime.start.p0(i64 4, ptr %4) #14
  %5 = load ptr, ptr @XLogRecoveryCtl, align 8
  %6 = getelementptr inbounds nuw %struct.XLogRecoveryCtlData, ptr %5, i32 0, i32 12
  %7 = call i32 @tas(ptr noundef %6)
  %8 = icmp ne i32 %7, 0
  br i1 %8, label %9, label %13

9:                                                ; preds = %1
  %10 = load ptr, ptr @XLogRecoveryCtl, align 8
  %11 = getelementptr inbounds nuw %struct.XLogRecoveryCtlData, ptr %10, i32 0, i32 12
  %12 = call i32 @s_lock(ptr noundef %11, ptr noundef @.str.6, i32 noundef 4579, ptr noundef @__func__.GetCurrentReplayRecPtr)
  br label %14

13:                                               ; preds = %1
  br label %14

14:                                               ; preds = %13, %9
  %15 = load ptr, ptr @XLogRecoveryCtl, align 8
  %16 = getelementptr inbounds nuw %struct.XLogRecoveryCtlData, ptr %15, i32 0, i32 6
  %17 = load i64, ptr %16, align 8
  store i64 %17, ptr %3, align 8
  %18 = load ptr, ptr @XLogRecoveryCtl, align 8
  %19 = getelementptr inbounds nuw %struct.XLogRecoveryCtlData, ptr %18, i32 0, i32 7
  %20 = load i32, ptr %19, align 8
  store i32 %20, ptr %4, align 4
  br label %21

21:                                               ; preds = %14
  call void asm sideeffect "", "~{memory},~{dirflag},~{fpsr},~{flags}"() #14, !srcloc !24
  %22 = load ptr, ptr @XLogRecoveryCtl, align 8
  %23 = getelementptr inbounds nuw %struct.XLogRecoveryCtlData, ptr %22, i32 0, i32 12
  store i8 0, ptr %23, align 8
  br label %24

24:                                               ; preds = %21
  br label %25

25:                                               ; preds = %24
  %26 = load ptr, ptr %2, align 8
  %27 = icmp ne ptr %26, null
  br i1 %27, label %28, label %31

28:                                               ; preds = %25
  %29 = load i32, ptr %4, align 4
  %30 = load ptr, ptr %2, align 8
  store i32 %29, ptr %30, align 4
  br label %31

31:                                               ; preds = %28, %25
  %32 = load i64, ptr %3, align 8
  call void @llvm.lifetime.end.p0(i64 4, ptr %4) #14
  call void @llvm.lifetime.end.p0(i64 8, ptr %3) #14
  ret i64 %32
}