; Function Attrs: nounwind uwtable
define dso_local i64 @GetCurrentReplayRecPtr(ptr noundef writeonly captures(address_is_null) %0) local_unnamed_addr #2 {
  %2 = load ptr, ptr @XLogRecoveryCtl, align 8
  %3 = getelementptr inbounds nuw i8, ptr %2, i64 96
  %4 = tail call i8 asm sideeffect "\09lock\09\09\09\0A\09xchgb\09$0,$1\09\0A", "=q,=*m,0,*m,~{memory},~{cc},~{dirflag},~{fpsr},~{flags}"(ptr nonnull elementtype(i8) %3, i8 1, ptr nonnull elementtype(i8) %3) #23, !srcloc !10
  %.not = icmp eq i8 %4, 0
  br i1 %.not, label %9, label %5

5:                                                ; preds = %1
  %6 = load ptr, ptr @XLogRecoveryCtl, align 8
  %7 = getelementptr inbounds nuw i8, ptr %6, i64 96
  %8 = tail call i32 @s_lock(ptr noundef nonnull %7, ptr noundef nonnull @.str.6, i32 noundef 4579, ptr noundef nonnull @__func__.GetCurrentReplayRecPtr) #23
  br label %9

9:                                                ; preds = %1, %5
  %10 = load ptr, ptr @XLogRecoveryCtl, align 8
  %11 = getelementptr inbounds nuw i8, ptr %10, i64 48
  %12 = load i64, ptr %11, align 8
  %13 = getelementptr inbounds nuw i8, ptr %10, i64 56
  %14 = load i32, ptr %13, align 8
  tail call void asm sideeffect "", "~{memory},~{dirflag},~{fpsr},~{flags}"() #23, !srcloc !38
  %15 = load ptr, ptr @XLogRecoveryCtl, align 8
  %16 = getelementptr inbounds nuw i8, ptr %15, i64 96
  store i8 0, ptr %16, align 8
  %.not3 = icmp eq ptr %0, null
  br i1 %.not3, label %18, label %17

17:                                               ; preds = %9
  store i32 %14, ptr %0, align 4
  br label %18

18:                                               ; preds = %17, %9
  ret i64 %12
}